target datalayout = "e-m:e-p270:32:32-p271:32:32-p272:64:64-i64:64-i128:128-f80:128-n8:16:32:64-S128"
target triple = "x86_64-pc-linux-gnu"

%struct.glslang_shader_s = type { ptr, %"class.std::__cxx11::basic_string" }
%"class.std::__cxx11::basic_string" = type { %"struct.std::__cxx11::basic_string<char>::_Alloc_hider", i64, %union.anon }
%"struct.std::__cxx11::basic_string<char>::_Alloc_hider" = type { ptr }
%union.anon = type { i64, [8 x i8] }
%"class.glslang::TShader" = type <{ ptr, ptr, i32, [4 x i8], ptr, ptr, ptr, ptr, ptr, ptr, i32, [4 x i8], ptr, %"class.std::__cxx11::basic_string", i32, %"struct.glslang::TEnvironment", i8, [3 x i8] }>
%"struct.glslang::TEnvironment" = type { %"struct.glslang::TInputLanguage", %"struct.glslang::TClient", %"struct.glslang::TTarget" }
%"struct.glslang::TInputLanguage" = type { i32, i32, i32, i32, i8 }
%"struct.glslang::TClient" = type { i32, i32 }
%"struct.glslang::TTarget" = type { i32, i32, i8 }

; Function Attrs: mustprogress nounwind uwtable
define linkonce_odr void @_ZN7glslang7TShader29setEnvInputVulkanRulesRelaxedEv(ptr noundef nonnull align 8 dereferenceable(165) %0) #0 comdat align 2 {
  %2 = alloca ptr, align 8
  store ptr %0, ptr %2, align 8
  %3 = load ptr, ptr %2, align 8
  %4 = getelementptr inbounds %"class.glslang::TShader", ptr %3, i32 0, i32 15
  %5 = getelementptr inbounds %"struct.glslang::TEnvironment", ptr %4, i32 0, i32 0
  %6 = getelementptr inbounds %"struct.glslang::TInputLanguage", ptr %5, i32 0, i32 4
  store i8 1, ptr %6, align 4
  ret void
}

; Function Attrs: mustprogress nounwind uwtable
define void @glslang_shader_set_options(ptr noundef %0, i32 noundef %1) #0 {
  %3 = alloca ptr, align 8
  %4 = alloca i32, align 4
  store ptr %0, ptr %3, align 8
  store i32 %1, ptr %4, align 4
  %5 = load i32, ptr %4, align 4
  %6 = and i32 %5, 1
  %7 = icmp ne i32 %6, 0
  br i1 %7, label %8, label %12

8:                                                ; preds = %2
  %9 = load ptr, ptr %3, align 8
  %10 = getelementptr inbounds %struct.glslang_shader_s, ptr %9, i32 0, i32 0
  %11 = load ptr, ptr %10, align 8
  call void @_ZN7glslang7TShader18setAutoMapBindingsEb(ptr noundef nonnull align 8 dereferenceable(165) %11, i1 noundef zeroext true)
  br label %12

12:                                               ; preds = %8, %2
  %13 = load i32, ptr %4, align 4
  %14 = and i32 %13, 2
  %15 = icmp ne i32 %14, 0
  br i1 %15, label %16, label %20

16:                                               ; preds = %12
  %17 = load ptr, ptr %3, align 8
  %18 = getelementptr inbounds %struct.glslang_shader_s, ptr %17, i32 0, i32 0
  %19 = load ptr, ptr %18, align 8
  call void @_ZN7glslang7TShader19setAutoMapLocationsEb(ptr noundef nonnull align 8 dereferenceable(165) %19, i1 noundef zeroext true)
  br label %20

20:                                               ; preds = %16, %12
  %21 = load i32, ptr %4, align 4
  %22 = and i32 %21, 4
  %23 = icmp ne i32 %22, 0
  br i1 %23, label %24, label %28

24:                                               ; preds = %20
  %25 = load ptr, ptr %3, align 8
  %26 = getelementptr inbounds %struct.glslang_shader_s, ptr %25, i32 0, i32 0
  %27 = load ptr, ptr %26, align 8
  call void @_ZN7glslang7TShader29setEnvInputVulkanRulesRelaxedEv(ptr noundef nonnull align 8 dereferenceable(165) %27)
  br label %28

28:                                               ; preds = %24, %20
  ret void
}