; Function Attrs: mustprogress nounwind uwtable
define void @glslang_shader_set_options(ptr nocapture noundef readonly %0, i32 noundef %1) local_unnamed_addr #0 {
  %3 = and i32 %1, 1
  %.not = icmp eq i32 %3, 0
  br i1 %.not, label %6, label %4

4:                                                ; preds = %2
  %5 = load ptr, ptr %0, align 8
  tail call void @_ZN7glslang7TShader18setAutoMapBindingsEb(ptr noundef nonnull align 8 dereferenceable(165) %5, i1 noundef zeroext true) #15
  br label %6

6:                                                ; preds = %4, %2
  %7 = and i32 %1, 2
  %.not5 = icmp eq i32 %7, 0
  br i1 %.not5, label %10, label %8

8:                                                ; preds = %6
  %9 = load ptr, ptr %0, align 8
  tail call void @_ZN7glslang7TShader19setAutoMapLocationsEb(ptr noundef nonnull align 8 dereferenceable(165) %9, i1 noundef zeroext true) #15
  br label %10

10:                                               ; preds = %8, %6
  %11 = and i32 %1, 4
  %.not6 = icmp eq i32 %11, 0
  br i1 %.not6, label %15, label %12

12:                                               ; preds = %10
  %13 = load ptr, ptr %0, align 8
  %14 = getelementptr inbounds i8, ptr %13, i64 140
  store i8 1, ptr %14, align 4
  br label %15

15:                                               ; preds = %12, %10
  ret void
}